; Function Attrs: nounwind uwtable
define noalias noundef ptr @CmdReturnFileNames(ptr noundef %0) local_unnamed_addr #0 {
  %2 = alloca ptr, align 8
  %3 = tail call noalias dereferenceable_or_null(16) ptr @malloc(i64 noundef 16) #18
  %4 = getelementptr inbounds nuw i8, ptr %3, i64 4
  store i32 0, ptr %4, align 4
  store i32 100, ptr %3, align 8
  %5 = tail call noalias dereferenceable_or_null(800) ptr @malloc(i64 noundef 800) #18
  %6 = getelementptr inbounds nuw i8, ptr %3, i64 8
  store ptr %5, ptr %6, align 8
  %7 = call i32 @scandir(ptr noundef %0, ptr noundef nonnull %2, ptr noundef null, ptr noundef nonnull @alphasort) #17
  %8 = icmp eq i32 %7, -1
  br i1 %8, label %10, label %.preheader

.preheader:                                       ; preds = %1
  %9 = icmp sgt i32 %7, 0
  br i1 %9, label %.lr.ph.preheader, label %._crit_edge

.lr.ph.preheader:                                 ; preds = %.preheader
  %wide.trip.count = zext nneg i32 %7 to i64
  br label %.lr.ph

10:                                               ; preds = %1
  %puts = call i32 @puts(ptr nonnull dereferenceable(1) @str.3)
  br label %67

.lr.ph:                                           ; preds = %.lr.ph.preheader, %65
  %indvars.iv = phi i64 [ 0, %.lr.ph.preheader ], [ %indvars.iv.next, %65 ]
  %11 = load ptr, ptr %2, align 8
  %12 = getelementptr inbounds nuw ptr, ptr %11, i64 %indvars.iv
  %13 = load ptr, ptr %12, align 8
  %14 = getelementptr inbounds nuw i8, ptr %13, i64 19
  %strchr = call ptr @strchr(ptr noundef nonnull dereferenceable(1) %14, i32 46)
  %.not = icmp eq ptr %strchr, null
  br i1 %.not, label %65, label %sub_0

sub_0:                                            ; preds = %.lr.ph
  %15 = load i8, ptr %strchr, align 1
  %.not32 = icmp eq i8 %15, 46
  br i1 %.not32, label %.tail, label %.tail26.thread

.tail:                                            ; preds = %sub_0
  %16 = getelementptr inbounds nuw i8, ptr %strchr, i64 1
  %17 = load i8, ptr %16, align 1
  %18 = icmp eq i8 %17, 0
  br i1 %18, label %65, label %sub_124

sub_124:                                          ; preds = %.tail
  %19 = getelementptr inbounds nuw i8, ptr %strchr, i64 1
  %20 = load i8, ptr %19, align 1
  %.not34 = icmp eq i8 %20, 46
  br i1 %.not34, label %.tail22, label %sub_128

.tail22:                                          ; preds = %sub_124
  %21 = getelementptr inbounds nuw i8, ptr %strchr, i64 2
  %22 = load i8, ptr %21, align 1
  %23 = icmp eq i8 %22, 0
  br i1 %23, label %65, label %sub_128

sub_128:                                          ; preds = %.tail22, %sub_124
  %24 = getelementptr inbounds nuw i8, ptr %strchr, i64 1
  %25 = load i8, ptr %24, align 1
  %.not36 = icmp eq i8 %25, 115
  br i1 %.not36, label %.tail26, label %.tail26.thread

.tail26:                                          ; preds = %sub_128
  %26 = getelementptr inbounds nuw i8, ptr %strchr, i64 2
  %27 = load i8, ptr %26, align 1
  %28 = icmp eq i8 %27, 0
  br i1 %28, label %65, label %.tail26.thread

.tail26.thread:                                   ; preds = %sub_0, %sub_128, %.tail26
  %29 = call i32 @strcmp(ptr noundef nonnull dereferenceable(1) %strchr, ptr noundef nonnull dereferenceable(5) @.str.30) #19
  %.not21 = icmp eq i32 %29, 0
  br i1 %.not21, label %65, label %30

30:                                               ; preds = %.tail26.thread
  %31 = call i64 @strlen(ptr noundef nonnull readonly dereferenceable(1) %14) #19
  %32 = add i64 %31, 1
  %33 = call noalias ptr @malloc(i64 noundef %32) #18
  %34 = call ptr @strcpy(ptr noundef nonnull dereferenceable(1) %33, ptr noundef nonnull readonly dereferenceable(1) %14) #17
  %35 = load i32, ptr %4, align 4
  %36 = load i32, ptr %3, align 8
  %37 = icmp eq i32 %35, %36
  br i1 %37, label %38, label %.Vec_PtrGrow.exit11_crit_edge.i

.Vec_PtrGrow.exit11_crit_edge.i:                  ; preds = %30
  %.pre.i = load ptr, ptr %6, align 8
  br label %Vec_PtrPush.exit

38:                                               ; preds = %30
  %39 = icmp slt i32 %35, 16
  br i1 %39, label %40, label %47

40:                                               ; preds = %38
  %41 = load ptr, ptr %6, align 8
  %.not9.i.i = icmp eq ptr %41, null
  br i1 %.not9.i.i, label %44, label %42

42:                                               ; preds = %40
  %43 = call dereferenceable_or_null(128) ptr @realloc(ptr noundef nonnull %41, i64 noundef 128) #20
  br label %Vec_PtrGrow.exit.i

44:                                               ; preds = %40
  %45 = call noalias dereferenceable_or_null(128) ptr @malloc(i64 noundef 128) #18
  br label %Vec_PtrGrow.exit.i

Vec_PtrGrow.exit.i:                               ; preds = %44, %42
  %46 = phi ptr [ %43, %42 ], [ %45, %44 ]
  store ptr %46, ptr %6, align 8
  store i32 16, ptr %3, align 8
  br label %Vec_PtrPush.exit

47:                                               ; preds = %38
  %48 = shl nuw nsw i32 %35, 1
  %49 = load ptr, ptr %6, align 8
  %.not9.i10.i = icmp eq ptr %49, null
  %50 = zext nneg i32 %48 to i64
  %51 = shl nuw nsw i64 %50, 3
  br i1 %.not9.i10.i, label %54, label %52

52:                                               ; preds = %47
  %53 = call ptr @realloc(ptr noundef nonnull %49, i64 noundef %51) #20
  br label %56

54:                                               ; preds = %47
  %55 = call noalias ptr @malloc(i64 noundef %51) #18
  br label %56

56:                                               ; preds = %54, %52
  %57 = phi ptr [ %53, %52 ], [ %55, %54 ]
  store ptr %57, ptr %6, align 8
  store i32 %48, ptr %3, align 8
  br label %Vec_PtrPush.exit

Vec_PtrPush.exit:                                 ; preds = %.Vec_PtrGrow.exit11_crit_edge.i, %Vec_PtrGrow.exit.i, %56
  %58 = phi ptr [ %.pre.i, %.Vec_PtrGrow.exit11_crit_edge.i ], [ %57, %56 ], [ %46, %Vec_PtrGrow.exit.i ]
  %59 = add nsw i32 %35, 1
  store i32 %59, ptr %4, align 4
  %60 = sext i32 %35 to i64
  %61 = getelementptr inbounds ptr, ptr %58, i64 %60
  store ptr %33, ptr %61, align 8
  %62 = load ptr, ptr %2, align 8
  %63 = getelementptr inbounds nuw ptr, ptr %62, i64 %indvars.iv
  %64 = load ptr, ptr %63, align 8
  call void @free(ptr noundef %64) #17
  br label %65

65:                                               ; preds = %.lr.ph, %.tail, %.tail22, %.tail26, %.tail26.thread, %Vec_PtrPush.exit
  %indvars.iv.next = add nuw nsw i64 %indvars.iv, 1
  %exitcond.not = icmp eq i64 %indvars.iv.next, %wide.trip.count
  br i1 %exitcond.not, label %._crit_edge, label %.lr.ph, !llvm.loop !35

._crit_edge:                                      ; preds = %65, %.preheader
  %66 = load ptr, ptr %2, align 8
  call void @free(ptr noundef %66) #17
  br label %67

67:                                               ; preds = %._crit_edge, %10
  %.0 = phi ptr [ null, %10 ], [ %3, %._crit_edge ]
  ret ptr %.0
}